target datalayout = "e-m:e-p270:32:32-p271:32:32-p272:64:64-i64:64-i128:128-f80:128-n8:16:32:64-S128"
target triple = "x86_64-unknown-linux-gnu"

; Function Attrs: nounwind uwtable
define hidden void @DestroyPreparedDictionary(ptr noundef %m, ptr noundef %dictionary) #0 {
entry:
  %m.addr = alloca ptr, align 8
  %dictionary.addr = alloca ptr, align 8
  store ptr %m, ptr %m.addr, align 8
  store ptr %dictionary, ptr %dictionary.addr, align 8
  %0 = load ptr, ptr %dictionary.addr, align 8
  %tobool = icmp ne ptr %0, null
  br i1 %tobool, label %if.end, label %if.then

if.then:                                          ; preds = %entry
  br label %return

if.end:                                           ; preds = %entry
  %1 = load ptr, ptr %m.addr, align 8
  %2 = load ptr, ptr %dictionary.addr, align 8
  call void @BrotliFree(ptr noundef %1, ptr noundef %2)
  store ptr null, ptr %dictionary.addr, align 8
  br label %return

return:                                           ; preds = %if.end, %if.then
  ret void
}