; Function Attrs: nounwind uwtable
define hidden void @DestroyPreparedDictionary(ptr noundef %m, ptr noundef %dictionary) local_unnamed_addr #0 {
entry:
  %tobool.not = icmp eq ptr %dictionary, null
  br i1 %tobool.not, label %return, label %if.end

if.end:                                           ; preds = %entry
  tail call void @BrotliFree(ptr noundef %m, ptr noundef nonnull %dictionary) #6
  br label %return

return:                                           ; preds = %entry, %if.end
  ret void
}